target datalayout = "e-m:e-p270:32:32-p271:32:32-p272:64:64-i64:64-i128:128-f80:128-n8:16:32:64-S128"
target triple = "x86_64-pc-linux-gnu"

%struct.lzma_next_coder_s = type { ptr, i64, i64, ptr, ptr, ptr, ptr, ptr, ptr, ptr }
%struct.lzma_auto_coder = type { %struct.lzma_next_coder_s, i64, i32, i32 }

; Function Attrs: nounwind uwtable
define internal i32 @auto_decoder_memconfig(ptr noundef %0, ptr noundef %1, ptr noundef %2, i64 noundef %3) #0 {
  %5 = alloca ptr, align 8
  %6 = alloca ptr, align 8
  %7 = alloca ptr, align 8
  %8 = alloca i64, align 8
  %9 = alloca ptr, align 8
  %10 = alloca i32, align 4
  store ptr %0, ptr %5, align 8, !tbaa !4
  store ptr %1, ptr %6, align 8, !tbaa !35
  store ptr %2, ptr %7, align 8, !tbaa !35
  store i64 %3, ptr %8, align 8, !tbaa !8
  call void @llvm.lifetime.start.p0(i64 8, ptr %9) #6
  %11 = load ptr, ptr %5, align 8, !tbaa !4
  store ptr %11, ptr %9, align 8, !tbaa !4
  call void @llvm.lifetime.start.p0(i64 4, ptr %10) #6
  %12 = load ptr, ptr %9, align 8, !tbaa !4
  %13 = getelementptr inbounds nuw %struct.lzma_auto_coder, ptr %12, i32 0, i32 0
  %14 = getelementptr inbounds nuw %struct.lzma_next_coder_s, ptr %13, i32 0, i32 7
  %15 = load ptr, ptr %14, align 8, !tbaa !41
  %16 = icmp ne ptr %15, null
  br i1 %16, label %17, label %30

17:                                               ; preds = %4
  %18 = load ptr, ptr %9, align 8, !tbaa !4
  %19 = getelementptr inbounds nuw %struct.lzma_auto_coder, ptr %18, i32 0, i32 0
  %20 = getelementptr inbounds nuw %struct.lzma_next_coder_s, ptr %19, i32 0, i32 7
  %21 = load ptr, ptr %20, align 8, !tbaa !41
  %22 = load ptr, ptr %9, align 8, !tbaa !4
  %23 = getelementptr inbounds nuw %struct.lzma_auto_coder, ptr %22, i32 0, i32 0
  %24 = getelementptr inbounds nuw %struct.lzma_next_coder_s, ptr %23, i32 0, i32 0
  %25 = load ptr, ptr %24, align 8, !tbaa !39
  %26 = load ptr, ptr %6, align 8, !tbaa !35
  %27 = load ptr, ptr %7, align 8, !tbaa !35
  %28 = load i64, ptr %8, align 8, !tbaa !8
  %29 = call i32 %21(ptr noundef %25, ptr noundef %26, ptr noundef %27, i64 noundef %28)
  store i32 %29, ptr %10, align 4, !tbaa !10
  br label %45

30:                                               ; preds = %4
  %31 = load ptr, ptr %6, align 8, !tbaa !35
  store i64 32768, ptr %31, align 8, !tbaa !8
  %32 = load ptr, ptr %9, align 8, !tbaa !4
  %33 = getelementptr inbounds nuw %struct.lzma_auto_coder, ptr %32, i32 0, i32 1
  %34 = load i64, ptr %33, align 8, !tbaa !30
  %35 = load ptr, ptr %7, align 8, !tbaa !35
  store i64 %34, ptr %35, align 8, !tbaa !8
  store i32 0, ptr %10, align 4, !tbaa !10
  %36 = load i64, ptr %8, align 8, !tbaa !8
  %37 = icmp ne i64 %36, 0
  br i1 %37, label %38, label %44

38:                                               ; preds = %30
  %39 = load i64, ptr %8, align 8, !tbaa !8
  %40 = load ptr, ptr %6, align 8, !tbaa !35
  %41 = load i64, ptr %40, align 8, !tbaa !8
  %42 = icmp ult i64 %39, %41
  br i1 %42, label %43, label %44

43:                                               ; preds = %38
  store i32 6, ptr %10, align 4, !tbaa !10
  br label %44

44:                                               ; preds = %43, %38, %30
  br label %45

45:                                               ; preds = %44, %17
  %46 = load i32, ptr %10, align 4, !tbaa !10
  %47 = icmp eq i32 %46, 0
  br i1 %47, label %48, label %55

48:                                               ; preds = %45
  %49 = load i64, ptr %8, align 8, !tbaa !8
  %50 = icmp ne i64 %49, 0
  br i1 %50, label %51, label %55

51:                                               ; preds = %48
  %52 = load i64, ptr %8, align 8, !tbaa !8
  %53 = load ptr, ptr %9, align 8, !tbaa !4
  %54 = getelementptr inbounds nuw %struct.lzma_auto_coder, ptr %53, i32 0, i32 1
  store i64 %52, ptr %54, align 8, !tbaa !30
  br label %55

55:                                               ; preds = %51, %48, %45
  %56 = load i32, ptr %10, align 4, !tbaa !10
  call void @llvm.lifetime.end.p0(i64 4, ptr %10) #6
  call void @llvm.lifetime.end.p0(i64 8, ptr %9) #6
  ret i32 %56
}