; Function Attrs: nounwind uwtable
define internal i32 @auto_decoder_memconfig(ptr noundef captures(none) %0, ptr noundef %1, ptr noundef %2, i64 noundef %3) #0 {
  %5 = getelementptr inbounds nuw i8, ptr %0, i64 56
  %6 = load ptr, ptr %5, align 8, !tbaa !33
  %.not = icmp eq ptr %6, null
  br i1 %.not, label %10, label %7

7:                                                ; preds = %4
  %8 = load ptr, ptr %0, align 8, !tbaa !31
  %9 = tail call i32 %6(ptr noundef %8, ptr noundef %1, ptr noundef %2, i64 noundef %3) #5
  br label %16

10:                                               ; preds = %4
  store i64 32768, ptr %1, align 8, !tbaa !22
  %11 = getelementptr inbounds nuw i8, ptr %0, i64 80
  %12 = load i64, ptr %11, align 8, !tbaa !23
  store i64 %12, ptr %2, align 8, !tbaa !22
  %.not20 = icmp eq i64 %3, 0
  br i1 %.not20, label %.thread, label %13

13:                                               ; preds = %10
  %14 = load i64, ptr %1, align 8, !tbaa !22
  %15 = icmp ult i64 %3, %14
  %spec.select = select i1 %15, i32 6, i32 0
  br label %16

16:                                               ; preds = %13, %7
  %.0 = phi i32 [ %9, %7 ], [ %spec.select, %13 ]
  %17 = icmp eq i32 %.0, 0
  %18 = icmp ne i64 %3, 0
  %or.cond = and i1 %18, %17
  br i1 %or.cond, label %19, label %.thread

19:                                               ; preds = %16
  %20 = getelementptr inbounds nuw i8, ptr %0, i64 80
  store i64 %3, ptr %20, align 8, !tbaa !23
  br label %.thread

.thread:                                          ; preds = %10, %19, %16
  %.023 = phi i32 [ 0, %19 ], [ %.0, %16 ], [ 0, %10 ]
  ret i32 %.023
}